target datalayout = "e-m:e-p270:32:32-p271:32:32-p272:64:64-i64:64-i128:128-f80:128-n8:16:32:64-S128"
target triple = "x86_64-unknown-linux-gnu"

%struct.__va_list_tag = type { i32, i32, ptr, ptr }

@flac__utils_verbosity_ = dso_local global i32 2, align 4
@stats_char_count = internal global i32 0, align 4
@stderr = external global ptr, align 8
@.str.1 = private unnamed_addr constant [2 x i8] c"\08\00", align 1
@console_width = internal global i32 0, align 4
@console_chars_left = internal global i32 0, align 4
@.str.3 = private unnamed_addr constant [2 x i8] c" \00", align 1
@.str.4 = private unnamed_addr constant [2 x i8] c"\0A\00", align 1
@.str.5 = private unnamed_addr constant [3 x i8] c"%s\00", align 1

; Function Attrs: nounwind sspstrong uwtable
define dso_local void @stats_clear() #0 {
entry:
  br label %while.cond

while.cond:                                       ; preds = %while.body, %entry
  %0 = load i32, ptr @stats_char_count, align 4
  %cmp = icmp sgt i32 %0, 0
  br i1 %cmp, label %land.rhs, label %land.end

land.rhs:                                         ; preds = %while.cond
  %1 = load i32, ptr @stats_char_count, align 4
  %dec = add nsw i32 %1, -1
  store i32 %dec, ptr @stats_char_count, align 4
  %tobool = icmp ne i32 %1, 0
  br label %land.end

land.end:                                         ; preds = %land.rhs, %while.cond
  %2 = phi i1 [ false, %while.cond ], [ %tobool, %land.rhs ]
  br i1 %2, label %while.body, label %while.end

while.body:                                       ; preds = %land.end
  %3 = load ptr, ptr @stderr, align 8
  %call = call i32 (ptr, ptr, ...) @fprintf(ptr noundef %3, ptr noundef @.str.1)
  br label %while.cond, !llvm.loop !5

while.end:                                        ; preds = %land.end
  ret void
}

; Function Attrs: nounwind sspstrong uwtable
define dso_local void @stats_print_info(i32 noundef %level, ptr noundef %format, ...) #0 {
entry:
  %level.addr = alloca i32, align 4
  %format.addr = alloca ptr, align 8
  %tmp = alloca [80 x i8], align 16
  %len = alloca i32, align 4
  %clear_len = alloca i32, align 4
  %args = alloca [1 x %struct.__va_list_tag], align 16
  store i32 %level, ptr %level.addr, align 4
  store ptr %format, ptr %format.addr, align 8
  %0 = load i32, ptr @flac__utils_verbosity_, align 4
  %1 = load i32, ptr %level.addr, align 4
  %cmp = icmp sge i32 %0, %1
  br i1 %cmp, label %if.then, label %if.end12

if.then:                                          ; preds = %entry
  %arraydecay = getelementptr inbounds [1 x %struct.__va_list_tag], ptr %args, i64 0, i64 0
  call void @llvm.va_start(ptr %arraydecay)
  %arraydecay1 = getelementptr inbounds [80 x i8], ptr %tmp, i64 0, i64 0
  %2 = load ptr, ptr %format.addr, align 8
  %arraydecay2 = getelementptr inbounds [1 x %struct.__va_list_tag], ptr %args, i64 0, i64 0
  %call = call i32 @flac_vsnprintf(ptr noundef %arraydecay1, i64 noundef 80, ptr noundef %2, ptr noundef %arraydecay2)
  store i32 %call, ptr %len, align 4
  %arraydecay3 = getelementptr inbounds [1 x %struct.__va_list_tag], ptr %args, i64 0, i64 0
  call void @llvm.va_end(ptr %arraydecay3)
  call void @stats_clear()
  %3 = load i32, ptr %len, align 4
  %4 = load i32, ptr @console_chars_left, align 4
  %cmp4 = icmp sge i32 %3, %4
  br i1 %cmp4, label %if.then5, label %if.end

if.then5:                                         ; preds = %if.then
  %5 = load i32, ptr @console_chars_left, align 4
  store i32 %5, ptr %clear_len, align 4
  br label %while.cond

while.cond:                                       ; preds = %while.body, %if.then5
  %6 = load i32, ptr %clear_len, align 4
  %cmp6 = icmp sgt i32 %6, 0
  br i1 %cmp6, label %land.rhs, label %land.end

land.rhs:                                         ; preds = %while.cond
  %7 = load i32, ptr %clear_len, align 4
  %dec = add nsw i32 %7, -1
  store i32 %dec, ptr %clear_len, align 4
  %tobool = icmp ne i32 %7, 0
  br label %land.end

land.end:                                         ; preds = %land.rhs, %while.cond
  %8 = phi i1 [ false, %while.cond ], [ %tobool, %land.rhs ]
  br i1 %8, label %while.body, label %while.end

while.body:                                       ; preds = %land.end
  %9 = load ptr, ptr @stderr, align 8
  %call7 = call i32 (ptr, ptr, ...) @fprintf(ptr noundef %9, ptr noundef @.str.3)
  br label %while.cond, !llvm.loop !7

while.end:                                        ; preds = %land.end
  %10 = load ptr, ptr @stderr, align 8
  %call8 = call i32 (ptr, ptr, ...) @fprintf(ptr noundef %10, ptr noundef @.str.4)
  %11 = load i32, ptr @console_width, align 4
  store i32 %11, ptr @console_chars_left, align 4
  br label %if.end

if.end:                                           ; preds = %while.end, %if.then
  %12 = load ptr, ptr @stderr, align 8
  %arraydecay9 = getelementptr inbounds [80 x i8], ptr %tmp, i64 0, i64 0
  %call10 = call i32 (ptr, ptr, ...) @fprintf(ptr noundef %12, ptr noundef @.str.5, ptr noundef %arraydecay9)
  store i32 %call10, ptr @stats_char_count, align 4
  %13 = load ptr, ptr @stderr, align 8
  %call11 = call i32 @fflush(ptr noundef %13)
  br label %if.end12

if.end12:                                         ; preds = %if.end, %entry
  ret void
}