; Function Attrs: nounwind sspstrong uwtable
define dso_local void @stats_print_info(i32 noundef %level, ptr noundef %format, ...) local_unnamed_addr #2 {
entry:
  %tmp = alloca [80 x i8], align 16
  %args = alloca [1 x %struct.__va_list_tag], align 16
  %0 = load i32, ptr @flac__utils_verbosity_, align 4
  %cmp.not = icmp slt i32 %0, %level
  br i1 %cmp.not, label %if.end12, label %if.then

if.then:                                          ; preds = %entry
  call void @llvm.va_start.p0(ptr nonnull %args)
  %call = call i32 @flac_vsnprintf(ptr noundef nonnull %tmp, i64 noundef 80, ptr noundef %format, ptr noundef nonnull %args) #18
  call void @llvm.va_end.p0(ptr nonnull %args)
  %1 = load i32, ptr @stats_char_count, align 4
  %cmp1.i = icmp sgt i32 %1, 0
  br i1 %cmp1.i, label %land.rhs.i, label %stats_clear.exit

land.rhs.i:                                       ; preds = %if.then, %land.rhs.i
  %2 = phi i32 [ %4, %land.rhs.i ], [ %1, %if.then ]
  %dec.i = add nsw i32 %2, -1
  store i32 %dec.i, ptr @stats_char_count, align 4
  %3 = load ptr, ptr @stderr, align 8
  %fputc.i = call i32 @fputc(i32 8, ptr %3)
  %4 = load i32, ptr @stats_char_count, align 4
  %cmp.i = icmp sgt i32 %4, 0
  br i1 %cmp.i, label %land.rhs.i, label %stats_clear.exit, !llvm.loop !5

stats_clear.exit:                                 ; preds = %land.rhs.i, %if.then
  %5 = load i32, ptr @console_chars_left, align 4
  %cmp4.not = icmp slt i32 %call, %5
  br i1 %cmp4.not, label %if.end, label %while.cond.preheader

while.cond.preheader:                             ; preds = %stats_clear.exit
  %cmp63 = icmp sgt i32 %5, 0
  br i1 %cmp63, label %while.body, label %while.end

while.body:                                       ; preds = %while.cond.preheader, %while.body
  %clear_len.04 = phi i32 [ %dec, %while.body ], [ %5, %while.cond.preheader ]
  %dec = add nsw i32 %clear_len.04, -1
  %6 = load ptr, ptr @stderr, align 8
  %fputc2 = call i32 @fputc(i32 32, ptr %6)
  %cmp6 = icmp samesign ugt i32 %clear_len.04, 1
  br i1 %cmp6, label %while.body, label %while.end, !llvm.loop !7

while.end:                                        ; preds = %while.body, %while.cond.preheader
  %7 = load ptr, ptr @stderr, align 8
  %fputc = call i32 @fputc(i32 10, ptr %7)
  %8 = load i32, ptr @console_width, align 4
  store i32 %8, ptr @console_chars_left, align 4
  br label %if.end

if.end:                                           ; preds = %while.end, %stats_clear.exit
  %9 = load ptr, ptr @stderr, align 8
  %call10 = call i32 (ptr, ptr, ...) @fprintf(ptr noundef %9, ptr noundef nonnull @.str.5, ptr noundef nonnull %tmp) #21
  store i32 %call10, ptr @stats_char_count, align 4
  %10 = load ptr, ptr @stderr, align 8
  %call11 = call i32 @fflush(ptr noundef %10)
  br label %if.end12

if.end12:                                         ; preds = %if.end, %entry
  ret void
}